target datalayout = "e-m:e-p270:32:32-p271:32:32-p272:64:64-i64:64-i128:128-f80:128-n8:16:32:64-S128"
target triple = "x86_64-pc-linux-gnu"

; Function Attrs: null_pointer_is_valid sspstrong uwtable
define hidden i32 @imf_find_field_end(ptr noundef %0, i32 noundef %1, i32 noundef %2, ptr noundef %3) #0 {
  %5 = alloca i32, align 4
  %6 = alloca ptr, align 8
  %7 = alloca i32, align 4
  %8 = alloca i32, align 4
  %9 = alloca ptr, align 8
  store ptr %0, ptr %6, align 8
  store i32 %1, ptr %7, align 4
  store i32 %2, ptr %8, align 4
  store ptr %3, ptr %9, align 8
  br label %10

10:                                               ; preds = %78, %4
  %11 = load i32, ptr %7, align 4
  %12 = load i32, ptr %8, align 4
  %13 = icmp slt i32 %11, %12
  br i1 %13, label %14, label %79

14:                                               ; preds = %10
  %15 = load ptr, ptr %6, align 8
  %16 = load i32, ptr %7, align 4
  %17 = load i32, ptr %8, align 4
  %18 = load i32, ptr %7, align 4
  %19 = sub i32 %17, %18
  %20 = call i32 @tvb_find_uint8(ptr noundef %15, i32 noundef %16, i32 noundef %19, i8 noundef zeroext 13)
  store i32 %20, ptr %7, align 4
  %21 = load i32, ptr %7, align 4
  %22 = icmp ne i32 %21, -1
  br i1 %22, label %23, label %77

23:                                               ; preds = %14
  %24 = load i32, ptr %7, align 4
  %25 = add i32 %24, 1
  store i32 %25, ptr %7, align 4
  %26 = load i32, ptr %8, align 4
  %27 = icmp slt i32 %25, %26
  br i1 %27, label %28, label %76

28:                                               ; preds = %23
  %29 = load ptr, ptr %6, align 8
  %30 = load i32, ptr %7, align 4
  %31 = call zeroext i8 @tvb_get_uint8(ptr noundef %29, i32 noundef %30)
  %32 = zext i8 %31 to i32
  %33 = icmp eq i32 %32, 10
  br i1 %33, label %34, label %76

34:                                               ; preds = %28
  %35 = load i32, ptr %7, align 4
  %36 = add i32 %35, 1
  store i32 %36, ptr %7, align 4
  %37 = load i32, ptr %8, align 4
  %38 = icmp sge i32 %36, %37
  br i1 %38, label %39, label %47

39:                                               ; preds = %34
  %40 = load ptr, ptr %9, align 8
  %41 = icmp ne ptr %40, null
  br i1 %41, label %42, label %44

42:                                               ; preds = %39
  %43 = load ptr, ptr %9, align 8
  store i8 1, ptr %43, align 1
  br label %44

44:                                               ; preds = %42, %39
  %45 = load i32, ptr %7, align 4
  %46 = sub i32 %45, 2
  store i32 %46, ptr %5, align 4
  br label %80

47:                                               ; preds = %34
  %48 = load ptr, ptr %6, align 8
  %49 = load i32, ptr %7, align 4
  %50 = call zeroext i8 @tvb_get_uint8(ptr noundef %48, i32 noundef %49)
  %51 = zext i8 %50 to i32
  switch i32 %51, label %73 [
    i32 13, label %52
    i32 32, label %72
    i32 9, label %72
  ]

52:                                               ; preds = %47
  %53 = load i32, ptr %7, align 4
  %54 = add i32 %53, 1
  %55 = load i32, ptr %8, align 4
  %56 = icmp slt i32 %54, %55
  br i1 %56, label %57, label %70

57:                                               ; preds = %52
  %58 = load ptr, ptr %6, align 8
  %59 = load i32, ptr %7, align 4
  %60 = add i32 %59, 1
  %61 = call zeroext i8 @tvb_get_uint8(ptr noundef %58, i32 noundef %60)
  %62 = zext i8 %61 to i32
  %63 = icmp eq i32 %62, 10
  br i1 %63, label %64, label %70

64:                                               ; preds = %57
  %65 = load ptr, ptr %9, align 8
  %66 = icmp ne ptr %65, null
  br i1 %66, label %67, label %69

67:                                               ; preds = %64
  %68 = load ptr, ptr %9, align 8
  store i8 1, ptr %68, align 1
  br label %69

69:                                               ; preds = %67, %64
  br label %70

70:                                               ; preds = %69, %57, %52
  %71 = load i32, ptr %7, align 4
  store i32 %71, ptr %5, align 4
  br label %80

72:                                               ; preds = %47, %47
  br label %75

73:                                               ; preds = %47
  %74 = load i32, ptr %7, align 4
  store i32 %74, ptr %5, align 4
  br label %80

75:                                               ; preds = %72
  br label %76

76:                                               ; preds = %75, %28, %23
  br label %78

77:                                               ; preds = %14
  br label %79

78:                                               ; preds = %76
  br label %10, !llvm.loop !6

79:                                               ; preds = %77, %10
  store i32 -1, ptr %5, align 4
  br label %80

80:                                               ; preds = %79, %73, %70, %44
  %81 = load i32, ptr %5, align 4
  ret i32 %81
}