; Function Attrs: null_pointer_is_valid sspstrong uwtable
define hidden i32 @imf_find_field_end(ptr noundef %0, i32 noundef %1, i32 noundef %2, ptr noundef writeonly captures(address_is_null) %3) local_unnamed_addr #0 {
  %5 = icmp slt i32 %1, %2
  br i1 %5, label %.lr.ph, label %.loopexit

.lr.ph:                                           ; preds = %4, %26
  %.02741 = phi i32 [ %.1, %26 ], [ %1, %4 ]
  %6 = sub i32 %2, %.02741
  %7 = tail call i32 @tvb_find_uint8(ptr noundef %0, i32 noundef %.02741, i32 noundef %6, i8 noundef zeroext 13)
  %.not = icmp eq i32 %7, -1
  br i1 %.not, label %.loopexit, label %8

8:                                                ; preds = %.lr.ph
  %9 = add nuw i32 %7, 1
  %10 = icmp slt i32 %9, %2
  br i1 %10, label %11, label %26

11:                                               ; preds = %8
  %12 = tail call zeroext i8 @tvb_get_uint8(ptr noundef %0, i32 noundef %9)
  %13 = icmp eq i8 %12, 10
  br i1 %13, label %14, label %26

14:                                               ; preds = %11
  %15 = add i32 %7, 2
  %.not36 = icmp slt i32 %15, %2
  br i1 %.not36, label %17, label %16

16:                                               ; preds = %14
  %.not37 = icmp eq ptr %3, null
  br i1 %.not37, label %.loopexit, label %.loopexit.sink.split

17:                                               ; preds = %14
  %18 = tail call zeroext i8 @tvb_get_uint8(ptr noundef %0, i32 noundef %15)
  switch i8 %18, label %.loopexit [
    i8 13, label %19
    i8 32, label %26
    i8 9, label %26
  ]

19:                                               ; preds = %17
  %20 = add i32 %7, 3
  %21 = icmp slt i32 %20, %2
  br i1 %21, label %22, label %.loopexit

22:                                               ; preds = %19
  %23 = tail call zeroext i8 @tvb_get_uint8(ptr noundef %0, i32 noundef %20)
  %24 = icmp eq i8 %23, 10
  %25 = icmp ne ptr %3, null
  %or.cond = and i1 %25, %24
  br i1 %or.cond, label %.loopexit.sink.split, label %.loopexit

26:                                               ; preds = %8, %11, %17, %17
  %.1 = phi i32 [ %15, %17 ], [ %15, %17 ], [ %9, %11 ], [ %9, %8 ]
  %27 = icmp slt i32 %.1, %2
  br i1 %27, label %.lr.ph, label %.loopexit, !llvm.loop !6

.loopexit.sink.split:                             ; preds = %22, %16
  %.0.ph = phi i32 [ %7, %16 ], [ %15, %22 ]
  store i8 1, ptr %3, align 1
  br label %.loopexit

.loopexit:                                        ; preds = %17, %.lr.ph, %26, %.loopexit.sink.split, %4, %19, %22, %16
  %.0 = phi i32 [ %7, %16 ], [ %15, %22 ], [ %15, %19 ], [ -1, %4 ], [ %.0.ph, %.loopexit.sink.split ], [ %15, %17 ], [ -1, %.lr.ph ], [ -1, %26 ]
  ret i32 %.0
}